(dp0
VQ_vocab
p1
(dp2
V__PAD__
p3
L0L
sV__GO__
p4
L1L
sV__EOS__
p5
L2L
sV__UNK__
p6
L3L
sV\u54c8\u54c8
p7
L4L
sV\u4f60
p8
L5L
sV\u771f
p9
L6L
sV\u539a\u8138\u76ae
p10
L7L
sV\u662f
p11
L8L
sV\u8c01
p12
L9L
sV\u53eb
p13
L10L
sV\u4ec0\u4e48
p14
L11L
sV\u540d\u5b57
p15
L12L
sV\u6211
p16
L13L
sV\u53ef\u4ee5
p17
L14L
sV\u600e\u4e48
p18
L15L
sV\u79f0\u547c
p19
L16L
sV\u7684
p20
L17L
sV\u5c0f\u6696
p21
L18L
sV\u5728
p22
L19L
sV\u4e0d
p23
L20L
sV\u554a
p24
L21L
sV\u5c0f
p25
L22L
sV\u6696
p26
L23L
sV\u6709
p27
L24L
sV\u4e00\u4e2a
p28
L25L
sV\u597d
p29
L26L
sV\u4e3b\u610f
p30
L27L
sV\u8001\u5a46
p31
L28L
sV\u5417
p32
L29L
sV\u770b
p33
L30L
sV\u4e0a
p34
L31L
sV\u4e00\u4f4d
p35
L32L
sV\u5c0f\u59d0\u59d0
p36
L33L
sV\u4e86
p37
L34L
sV\u8bf7\u95ee
p38
L35L
sV\uff0c
p39
L36L
sV\u54ea\u91cc
p40
L37L
sV\u4eba
p41
L38L
sV\u54ea
p42
L39L
sV\u56fd\u4eba
p43
L40L
sV\u4f60\u5bb6
p44
L41L
sV\u4e2d\u56fd
p45
L42L
sV\u4eca\u5e74
p46
L43L
sV\u591a\u5927
p47
L44L
sV\u51e0\u5c81
p48
L45L
sV\u7231\u60c5
p49
L46L
sV\u6e34\u671b
p50
L47L
sV\u5973\u670b\u53cb
p51
L48L
sV\u5e2e
p52
L49L
sV\u627e\u627e\u770b
p53
L50L
sV\u5c0f\u51b0
p54
L51L
sV\uff1f
p55
L52L
sV\u8d77\u6765
p56
L53L
sV\u65e9
p57
L54L
sV\u5bb3\u6015
p58
L55L
sV\u5403\u996d
p59
L56L
sV\u6709\u6ca1\u6709
p60
L57L
sV\u57fa\u53cb
p61
L58L
sV\u5403
p62
L59L
sV\u9971
p63
L60L
sV\u9ec4\u9e21
p64
L61L
sV\u4eba\u7c7b
p65
L62L
sV\u9700\u8981
p66
L63L
sV\u6628\u665a
p67
L64L
sV\u53c8
p68
L65L
sV\u6ca1
p69
L66L
sV\u7761
p70
L67L
sV\u96be\u8fc7
p71
L68L
sV\u5b64\u72ec
p72
L69L
sV\u7d2f
p73
L70L
sV\u55b5
p74
L71L
sV\u4e48
p75
L72L
sV\u54d2
p76
L73L
sV\u6765\u4e2a
p77
L74L
sV\u59b9\u5b50
p78
L75L
sV\u8d85\u7ea7
p79
L76L
sV\u559c\u6b22
p80
L77L
sVshit
p81
L78L
sVfuck
p82
L79L
sV\u8d4f
p83
L80L
sV\u4e00\u4e08
p84
L81L
sV\u7ea2
p85
L82L
sV\u7537\u670b\u53cb
p86
L83L
sV\u6211\u8981
p87
L84L
sV\u627e\u4e2a
p88
L85L
sV\u627e\u5bf9\u8c61
p89
L86L
sV\u627e
p90
L87L
sV\u597d\u4e45
p91
L88L
sV\u5f00\u8f66
p92
L89L
sV\u5c0f\u9e2d
p93
L90L
sV\u6a31\u82b1
p94
L91L
sV\u4e0b\u843d
p95
L92L
sV\u901f\u5ea6
p96
L93L
sV\u6bcf\u79d2
p97
L94L
sV5
p98
L95L
sV\u5398\u7c73
p99
L96L
sV\u5929\u738b
p100
L97L
sV\u76d6\u5730
p101
L98L
sV\u864e
p102
L99L
sV\u5f88
p103
L100L
sV\u5feb\u4e50
p104
L101L
sV\u6b7b\u4ea1
p105
L102L
sV\u964d\u4e34
p106
L103L
sV\u4f1a
p107
L104L
sV\u5e26\u8d70
p108
L105L
sV\u4e00\u5207
p109
L106L
sV\u8ba4\u8bc6
p110
L107L
sVdnf
p111
L108L
sVDNF
p112
L109L
sV\u6e38\u620f
p113
L110L
sV\u73a9\u6e38\u620f
p114
L111L
sV\u8ba8\u538c
p115
L112L
sV\u8fd9\u4efd
p116
L113L
sV\u5de5\u4f5c
p117
L114L
ssVQ_vec
p118
(lp119
(lp120
L4L
aa(lp121
L5L
aL6L
aL7L
aa(lp122
L5L
aL8L
aL9L
aa(lp123
L5L
aL10L
aL11L
aL12L
aa(lp124
L13L
aL14L
aL15L
aL16L
aL5L
aa(lp125
L5L
aL17L
aL12L
aa(lp126
L5L
aL17L
aL12L
aa(lp127
L18L
aa(lp128
L18L
aa(lp129
L18L
aa(lp130
L18L
aa(lp131
L19L
aL20L
aL19L
aL21L
aL22L
aL23L
aa(lp132
L13L
aL24L
aL25L
aL26L
aL27L
aa(lp133
L18L
aa(lp134
L28L
aa(lp135
L28L
aL19L
aL29L
aa(lp136
L18L
aL19L
aL29L
aa(lp137
L13L
aL30L
aL31L
aL32L
aL33L
aL34L
aa(lp138
L35L
aL18L
aL36L
aL5L
aL8L
aL37L
aL38L
aa(lp139
L5L
aL8L
aL39L
aL40L
aa(lp140
L41L
aL8L
aL37L
aL17L
aa(lp141
L42L
aa(lp142
L5L
aL43L
aL44L
aL34L
aa(lp143
L5L
aL43L
aL45L
aa(lp144
L46L
aa(lp145
L13L
aL47L
aL25L
aL48L
aa(lp146
L5L
aL49L
aL13L
aL50L
aa(lp147
L51L
aL8L
aL9L
aL52L
aa(lp148
L51L
aa(lp149
L51L
aa(lp150
L5L
aL53L
aL26L
aL54L
aa(lp151
L26L
aL55L
aa(lp152
L56L
aa(lp153
L57L
aL26L
aL58L
aa(lp154
L5L
aL59L
aL17L
aL26L
aL60L
aa(lp155
L22L
aL61L
aa(lp156
L22L
aL61L
aa(lp157
L5L
aL8L
aL62L
aL29L
aa(lp158
L5L
aL8L
aL62L
aL29L
aa(lp159
L5L
aL63L
aL56L
aL29L
aa(lp160
L5L
aL64L
aL65L
aL66L
aL67L
aL21L
aa(lp161
L13L
aL26L
aL68L
aa(lp162
L13L
aL26L
aL69L
aa(lp163
L13L
aL26L
aL70L
aa(lp164
L26L
aL12L
aa(lp165
L26L
aL12L
aa(lp166
L71L
aL71L
aa(lp167
L72L
aL72L
aL73L
aa(lp168
L74L
aL75L
aa(lp169
L76L
aL77L
aL5L
aa(lp170
L78L
aa(lp171
L79L
aa(lp172
L26L
aL70L
aa(lp173
L80L
aL5L
aL81L
aL82L
aa(lp174
L13L
aL66L
aL83L
aa(lp175
L84L
aL85L
aL83L
aa(lp176
L84L
aL86L
aa(lp177
L13L
aL87L
aL5L
aL88L
aL34L
aa(lp178
L89L
aL89L
aa(lp179
L90L
aL8L
aL9L
aa(lp180
L13L
aL8L
aL5L
aL17L
aa(lp181
L91L
aL92L
aL17L
aL93L
aL8L
aL94L
aL95L
aL96L
aa(lp182
L97L
aL98L
aL99L
aa(lp183
L13L
aL100L
aL101L
aa(lp184
L102L
aa(lp185
L102L
aL103L
aa(lp186
L102L
aL104L
aL105L
aL106L
aa(lp187
L13L
aL107L
aL5L
aL34L
aa(lp188
L108L
aa(lp189
L109L
aa(lp190
L110L
aa(lp191
L84L
aL111L
aa(lp192
L13L
aL112L
aL113L
aL114L
aa(lp193
L112L
aasVQ_vocab_size
p194
L114L
sVA_vocab
p195
(dp196
g3
L0L
sg4
L1L
sg5
L2L
sg6
L3L
sV\u7b11
p197
L4L
sV\u7684
p198
L5L
sV\u90a3\u4e48
p199
L6L
sV\u6b22
p200
L7L
sV\u5e72\u561b
p201
L8L
sV\u6211\u9519
p202
L9L
sV\u4e86
p203
L10L
sVQAQ
p204
L11L
sV\u545c\u545c
p205
L12L
sV\u545c
p206
L13L
sV\u301c
p207
L14L
sV\u6211
p208
L15L
sV\u662f
p209
L16L
sV\u5c0f
p210
L17L
sV\u6696
p211
L18L
sV\uff0c
p212
L19L
sV\u4f60
p213
L20L
sV\u53ef\u4ee5
p214
L21L
sV\u53eb
p215
L22L
sV\u005c
p216
L23L
sV\ufeff
p217
L24L
sV 
p218
L25L
sV(
p219
L26L
sV\u2022
p220
L27L
sV\u25e1
p221
L28L
sV)
p222
L29L
sV/
p223
L30L
sV\u597d
p224
L31L
sV\u5f53\u7136
p225
L32L
sV\u4e5f
p226
L33L
sV\u5728
p227
L34L
sV\u8fd8\u662f
p228
L35L
sV\u8bf4
p229
L36L
sV\u65b0\u6d77
p230
L37L
sV\u8bda
p231
L38L
sV\u7535\u5f71
p232
L39L
sV\u5565\u4e8b
p233
L40L
sV\uff1f
p234
L41L
sV\u6709
p235
L42L
sV\u4e0d
p236
L43L
sV\u5f00\u5fc3
p237
L44L
sV\u8fd9\u91cc
p238
L45L
sV\u54e6
p239
L46L
sV\u8bf4\u6765\u542c\u542c
p240
L47L
sV\u4e00\u76f4
p241
L48L
sV\u8eab\u8fb9
p242
L49L
sV\u53ef\u4e0d\u662f
p243
L50L
sV\u8001\u5a46
p244
L51L
sV\u522b
p245
L52L
sV\u4e71\u53eb
p246
L53L
sV\u771f\u662f
p247
L54L
sV\u6b20
p248
L55L
sV\u7ba1\u6559
p249
L56L
sV\u4e4c\u62c9
p250
L57L
sV\u54ea
p251
L58L
sV\u628a
p252
L59L
sV\u5979
p253
L60L
sV\u627e
p254
L61L
sV\u6765
p255
L62L
sV\u4e2d\u56fd
p256
L63L
sV\u4eba
p257
L64L
sV\uff01
p258
L65L
sVchina
p259
L66L
sVChina
p260
L67L
sV1
p261
L68L
sV\u5c81
p262
L69L
sV\u5566
p263
L70L
sV\u4ece\u672a
p264
L71L
sV\u771f\u6b63
p265
L72L
sV\u6765\u8fc7
p266
L73L
sV\u8981
p267
L74L
sV\u5e2e
p268
L75L
sV\u4e2a
p269
L76L
sV\u561b
p270
L77L
sV\u989d
p271
L78L
sV\u4e0d\u5230
p272
L79L
sV\u554a
p273
L80L
sV\u59d0\u59d0
p274
L81L
sV\u88ab
p275
L82L
sV\u817e\u8baf
p276
L83L
sV\u8d76\u56de
p277
L84L
sV\u5bb6
p278
L85L
sV\u8001\u9a6c
p279
L86L
sV\u8df3\u821e
p280
L87L
sV\u522b\u6015
p281
L88L
sV\u997f
p282
L89L
sVshi
p283
L90L
sV\u6d3b\u8be5
p284
L91L
sV\u800c\u4e14
p285
L92L
sV\u53ea
p286
L93L
sV\u4e00\u4e2a
p287
L94L
sV\u2026
p288
L95L
sV\u8fd9
p289
L96L
sV\u57fa\u60c5
p290
L97L
sV\u56db\u5c04
p291
L98L
sV\u5e74\u4ee3
p292
L99L
sV!
p293
L100L
sV\u54fc\u54fc
p294
L101L
sV\u5b83
p295
L102L
sV\u5f88
p296
L103L
sV\u83dc
p297
L104L
sV\u5c0f\u83dc
p298
L105L
sV\u9e21
p299
L106L
sV\u4e3a
p300
L107L
sV\u4eba\u6c11
p301
L108L
sV\u670d\u52a1
p302
L109L
sV\u4e8e
p303
L110L
sV\u4eba\u7c7b
p304
L111L
sV\u9700\u8981
p305
L112L
sVpower
p306
L113L
sV\u5f7b\u591c
p307
L114L
sV\u5b88\u62a4
p308
L115L
sV\u7740
p309
L116L
sV\u6211\u4f1a
p310
L117L
sV\u8fd8\u6709
p311
L118L
sV\u8fdc\u65b9
p312
L119L
sV\u670b\u53cb
p313
L120L
sV\u575a\u6301
p314
L121L
sV\u4f4f
p315
L122L
sV\u8c22\u8c22
p316
L123L
sV\u5938\u5956
p317
L124L
sV\u90a3
p318
L125L
sV\u55b5
p319
L126L
sV\u840c\u840c
p320
L127L
sV\u54d2
p321
L128L
sV\u5c31\u662f
p322
L129L
sV\u559c\u6b22
p323
L130L
sV\u4e0d\u51c6
p324
L131L
sV\u810f\u8bdd
p325
L132L
sV\u4e0d\u662f
p326
L133L
sV\u597d\u5b69\u5b50
p327
L134L
sV\u591a
p328
L135L
sV\u7761
p329
L136L
sV\u4f1a\u513f
p330
L137L
sV\u5a18\u5a18
p331
L138L
sV\u9976\u547d
p332
L139L
sV\u5440
p333
L140L
sV\u90a3\u8981
p334
L141L
sV\u627e\u4e2a
p335
L142L
sV\u50cf
p336
L143L
sV\u8fd9\u6837
p337
L144L
sV\u5feb\u5230
p338
L145L
sV\u7897
p339
L146L
sV\u91cc
p340
L147L
sV\u6c61\u6c61
p341
L148L
sV\u8001
p342
L149L
sV\u53f8\u673a
p343
L150L
sV\u4e56\u4e56\u5973
p344
L151L
sV\u4f18
p345
L152L
sV\u4e50\u7f8e
p346
L153L
sV\u4e24\u9897\u5fc3
p347
L154L
sV\u8ddd\u79bb
p348
L155L
sV\u80fd
p349
L156L
sV\u9760
p350
L157L
sV\u5f97
p351
L158L
sV\u591a\u8fd1
p352
L159L
sV\u63d0\u83ab
p353
L160L
sV\u4e00\u7c73
p354
L161L
sV\u4e94
p355
L162L
sV\u5feb\u4e50
p356
L163L
sV\u6d3b\u7740
p357
L164L
sV\u8ba4\u8bc6
p358
L165L
sV\u75db\u82e6
p359
L166L
sV\u4e4b\u6751
p360
L167L
sV\u5217\u745f\u82ac
p361
L168L
sV\u5192\u9669\u5bb6
p362
L169L
sV\u771f\u7684
p363
L170L
sV\u90aa\u6076
p364
L171L
sV\u5417
p365
L172L
sV\u901a\u5173
p366
L173L
sV\u7ed9
p367
L174L
sV\u5fcd\u8010
p368
L175L
sV\u6216\u662f
p369
L176L
sV\u653e\u98de
p370
L177L
sV\u81ea\u6211
p371
L178L
sV\u54ea\u6709
p372
L179L
ssVA_vec
p373
(lp374
(lp375
L4L
aL5L
aL6L
aL7L
aL8L
aL2L
aa(lp376
L9L
aL10L
aL11L
aL12L
aL13L
aL14L
aL14L
aL2L
aa(lp377
L15L
aL16L
aL17L
aL18L
aL19L
aL20L
aL21L
aL22L
aL15L
aL18L
aL18L
aL23L
aL24L
aL25L
aL26L
aL27L
aL28L
aL27L
aL29L
aL25L
aL30L
aL2L
aa(lp378
L15L
aL16L
aL17L
aL18L
aL19L
aL20L
aL21L
aL22L
aL15L
aL18L
aL18L
aL23L
aL24L
aL25L
aL26L
aL27L
aL28L
aL27L
aL29L
aL25L
aL30L
aL2L
aa(lp379
L22L
aL15L
aL17L
aL18L
aL31L
aL10L
aL19L
aL32L
aL33L
aL21L
aL22L
aL15L
aL18L
aL18L
aL23L
aL24L
aL25L
aL26L
aL27L
aL28L
aL27L
aL29L
aL25L
aL30L
aL2L
aa(lp380
L15L
aL16L
aL17L
aL18L
aL19L
aL20L
aL21L
aL22L
aL15L
aL18L
aL18L
aL23L
aL24L
aL25L
aL26L
aL27L
aL28L
aL27L
aL29L
aL25L
aL30L
aL2L
aa(lp381
L20L
aL34L
aL22L
aL15L
aL19L
aL35L
aL34L
aL36L
aL37L
aL38L
aL5L
aL39L
aL2L
aa(lp382
L34L
aL5L
aL2L
aa(lp383
L22L
aL15L
aL40L
aL41L
aL2L
aa(lp384
L42L
aL43L
aL44L
aL10L
aL41L
aL2L
aa(lp385
L15L
aL34L
aL45L
aL46L
aL2L
aa(lp386
L34L
aL5L
aL2L
aa(lp387
L47L
aL2L
aa(lp388
L48L
aL34L
aL20L
aL49L
aL46L
aL2L
aa(lp389
L15L
aL50L
aL20L
aL51L
aL19L
aL52L
aL53L
aL2L
aa(lp390
L54L
aL55L
aL56L
aL19L
aL15L
aL50L
aL20L
aL51L
aL2L
aa(lp391
L57L
aL2L
aa(lp392
L34L
aL58L
aL19L
aL59L
aL60L
aL61L
aL62L
aL2L
aa(lp393
L15L
aL16L
aL63L
aL64L
aL65L
aL2L
aa(lp394
L15L
aL16L
aL63L
aL64L
aL65L
aL2L
aa(lp395
L63L
aL65L
aL66L
aL2L
aa(lp396
L67L
aL2L
aa(lp397
L68L
aL69L
aL70L
aL2L
aa(lp398
L68L
aL69L
aL70L
aL2L
aa(lp399
L71L
aL72L
aL73L
aL2L
aa(lp400
L74L
aL15L
aL75L
aL20L
aL61L
aL76L
aL77L
aL41L
aL2L
aa(lp401
L78L
aL19L
aL61L
aL79L
aL80L
aL2L
aa(lp402
L60L
aL16L
aL15L
aL81L
aL2L
aa(lp403
L60L
aL43L
aL34L
aL19L
aL82L
aL83L
aL84L
aL85L
aL10L
aL2L
aa(lp404
L60L
aL82L
aL86L
aL84L
aL85L
aL10L
aL2L
aa(lp405
L74L
aL87L
aL77L
aL41L
aL2L
aa(lp406
L88L
aL19L
aL42L
aL15L
aL34L
aL2L
aa(lp407
L89L
aL90L
aL91L
aL2L
aa(lp408
L42L
aL19L
aL92L
aL43L
aL93L
aL94L
aL46L
aL95L
aL96L
aL16L
aL76L
aL97L
aL98L
aL5L
aL99L
aL77L
aL100L
aL2L
aa(lp409
L101L
aL19L
aL9L
aL10L
aL12L
aL13L
aL14L
aL14L
aL11L
aL2L
aa(lp410
L102L
aL103L
aL104L
aL5L
aL2L
aa(lp411
L105L
aL106L
aL2L
aa(lp412
L15L
aL107L
aL108L
aL109L
aL2L
aa(lp413
L15L
aL109L
aL110L
aL111L
aL2L
aa(lp414
L43L
aL19L
aL15L
aL112L
aL113L
aL2L
aa(lp415
L15L
aL34L
aL114L
aL16L
aL115L
aL116L
aL20L
aL2L
aa(lp416
L117L
aL48L
aL34L
aL20L
aL49L
aL2L
aa(lp417
L20L
aL118L
aL15L
aL19L
aL118L
aL119L
aL5L
aL120L
aL2L
aa(lp418
L121L
aL122L
aL2L
aa(lp419
L123L
aL124L
aL2L
aa(lp420
L125L
aL32L
aL2L
aa(lp421
L126L
aL126L
aL2L
aa(lp422
L127L
aL128L
aL2L
aa(lp423
L15L
aL19L
aL15L
aL129L
aL2L
aa(lp424
L15L
aL33L
aL130L
aL20L
aL2L
aa(lp425
L131L
aL36L
aL132L
aL2L
aa(lp426
L133L
aL134L
aL2L
aa(lp427
L135L
aL136L
aL137L
aL2L
aa(lp428
L138L
aL139L
aL80L
aL2L
aa(lp429
L20L
aL42L
aL15L
aL140L
aL2L
aa(lp430
L141L
aL142L
aL143L
aL15L
aL144L
aL18L
aL5L
aL2L
aa(lp431
L15L
aL131L
aL2L
aa(lp432
L145L
aL15L
aL146L
aL147L
aL62L
aL2L
aa(lp433
L148L
aL19L
aL149L
aL150L
aL2L
aa(lp434
L151L
aL2L
aa(lp435
L152L
aL153L
aL2L
aa(lp436
L154L
aL5L
aL155L
aL156L
aL157L
aL158L
aL159L
aL2L
aa(lp437
L160L
aL161L
aL162L
aL2L
aa(lp438
L20L
aL5L
aL163L
aL129L
aL15L
aL5L
aL163L
aL2L
aa(lp439
L74L
aL164L
aL2L
aa(lp440
L74L
aL164L
aL2L
aa(lp441
L74L
aL164L
aL2L
aa(lp442
L15L
aL33L
aL165L
aL20L
aL2L
aa(lp443
L166L
aL167L
aL168L
aL2L
aa(lp444
L169L
aL19L
aL15L
aL170L
aL171L
aL172L
aL2L
aa(lp445
L173L
aL2L
aa(lp446
L174L
aL20L
aL173L
aL2L
aa(lp447
L175L
aL176L
aL177L
aL178L
aL2L
aa(lp448
L179L
aL2L
aasVA_vocab_size
p449
L179L
s.